; Function Attrs: nofree norecurse nosync nounwind memory(read, inaccessiblemem: none) uwtable
define range(i32 0, 2) i32 @Vta_ManObjIsUsed(ptr noundef readonly captures(none) %0, i32 noundef %1) local_unnamed_addr #7 {
  %3 = getelementptr inbounds nuw i8, ptr %0, i64 88
  %4 = load ptr, ptr %3, align 8, !tbaa !86
  %5 = getelementptr inbounds nuw i8, ptr %0, i64 72
  %6 = load i32, ptr %5, align 8, !tbaa !87
  %7 = mul nsw i32 %6, %1
  %8 = getelementptr i8, ptr %4, i64 8
  %.val = load ptr, ptr %8, align 8, !tbaa !3
  %9 = sext i32 %7 to i64
  %10 = getelementptr inbounds i32, ptr %.val, i64 %9
  %11 = icmp sgt i32 %6, 0
  br i1 %11, label %.lr.ph.preheader, label %._crit_edge

.lr.ph.preheader:                                 ; preds = %2
  %wide.trip.count = zext nneg i32 %6 to i64
  br label %.lr.ph

12:                                               ; preds = %.lr.ph
  %indvars.iv.next = add nuw nsw i64 %indvars.iv, 1
  %exitcond.not = icmp eq i64 %indvars.iv.next, %wide.trip.count
  br i1 %exitcond.not, label %._crit_edge, label %.lr.ph, !llvm.loop !88

.lr.ph:                                           ; preds = %.lr.ph.preheader, %12
  %indvars.iv = phi i64 [ 0, %.lr.ph.preheader ], [ %indvars.iv.next, %12 ]
  %13 = getelementptr inbounds nuw i32, ptr %10, i64 %indvars.iv
  %14 = load i32, ptr %13, align 4, !tbaa !10
  %.not = icmp eq i32 %14, 0
  br i1 %.not, label %12, label %._crit_edge

._crit_edge:                                      ; preds = %.lr.ph, %12, %2
  %.0 = phi i32 [ 0, %2 ], [ 0, %12 ], [ 1, %.lr.ph ]
  ret i32 %.0
}